; Function Attrs: mustprogress uwtable
define hidden noundef double @_Z18get_rotation_errorRKN2cv3MatES2_(ptr noundef nonnull align 8 dereferenceable(96) %0, ptr noundef nonnull align 8 dereferenceable(96) %1) local_unnamed_addr #6 personality ptr @__gxx_personality_v0 {
  %3 = alloca %"class.cv::Mat", align 8
  %4 = alloca %"class.cv::Mat", align 8
  %5 = alloca %"class.cv::MatExpr", align 8
  %6 = alloca %"class.cv::MatExpr", align 8
  %7 = alloca %"class.cv::MatExpr", align 8
  %8 = alloca %"class.cv::_InputArray", align 8
  %9 = alloca %"class.cv::_OutputArray", align 8
  %10 = alloca %"class.cv::_InputArray", align 8
  call void @llvm.lifetime.start.p0(i64 96, ptr nonnull %3) #25
  call void @_ZN2cv3MatC1Ev(ptr noundef nonnull align 8 dereferenceable(96) %3) #25
  call void @llvm.lifetime.start.p0(i64 96, ptr nonnull %4) #25
  call void @_ZN2cv3MatC1Ev(ptr noundef nonnull align 8 dereferenceable(96) %4) #25
  call void @llvm.lifetime.start.p0(i64 352, ptr nonnull %5) #25
  call void @llvm.lifetime.start.p0(i64 352, ptr nonnull %6) #25
  invoke void @_ZN2cvngERKNS_3MatE(ptr dead_on_unwind nonnull writable sret(%"class.cv::MatExpr") align 8 %6, ptr noundef nonnull align 8 dereferenceable(96) %0)
          to label %11 unwind label %43

11:                                               ; preds = %2
  call void @llvm.lifetime.start.p0(i64 352, ptr nonnull %7) #25
  invoke void @_ZNK2cv3Mat1tEv(ptr dead_on_unwind nonnull writable sret(%"class.cv::MatExpr") align 8 %7, ptr noundef nonnull align 8 dereferenceable(96) %1)
          to label %12 unwind label %45

12:                                               ; preds = %11
  invoke void @_ZN2cvmlERKNS_7MatExprES2_(ptr dead_on_unwind nonnull writable sret(%"class.cv::MatExpr") align 8 %5, ptr noundef nonnull align 8 dereferenceable(352) %6, ptr noundef nonnull align 8 dereferenceable(352) %7)
          to label %13 unwind label %47

13:                                               ; preds = %12
  %14 = load ptr, ptr %5, align 8, !tbaa !117
  %15 = load ptr, ptr %14, align 8, !tbaa !49
  %16 = getelementptr inbounds nuw i8, ptr %15, i64 24
  %17 = load ptr, ptr %16, align 8
  invoke void %17(ptr noundef nonnull align 8 dereferenceable(8) %14, ptr noundef nonnull align 8 dereferenceable(352) %5, ptr noundef nonnull align 8 dereferenceable(96) %4, i32 noundef -1)
          to label %18 unwind label %49

18:                                               ; preds = %13
  %19 = getelementptr inbounds nuw i8, ptr %5, i64 208
  call void @_ZN2cv3MatD1Ev(ptr noundef nonnull align 8 dereferenceable(96) %19) #25
  %20 = getelementptr inbounds nuw i8, ptr %5, i64 112
  call void @_ZN2cv3MatD1Ev(ptr noundef nonnull align 8 dereferenceable(96) %20) #25
  %21 = getelementptr inbounds nuw i8, ptr %5, i64 16
  call void @_ZN2cv3MatD1Ev(ptr noundef nonnull align 8 dereferenceable(96) %21) #25
  %22 = getelementptr inbounds nuw i8, ptr %7, i64 208
  call void @_ZN2cv3MatD1Ev(ptr noundef nonnull align 8 dereferenceable(96) %22) #25
  %23 = getelementptr inbounds nuw i8, ptr %7, i64 112
  call void @_ZN2cv3MatD1Ev(ptr noundef nonnull align 8 dereferenceable(96) %23) #25
  %24 = getelementptr inbounds nuw i8, ptr %7, i64 16
  call void @_ZN2cv3MatD1Ev(ptr noundef nonnull align 8 dereferenceable(96) %24) #25
  call void @llvm.lifetime.end.p0(i64 352, ptr nonnull %7) #25
  %25 = getelementptr inbounds nuw i8, ptr %6, i64 208
  call void @_ZN2cv3MatD1Ev(ptr noundef nonnull align 8 dereferenceable(96) %25) #25
  %26 = getelementptr inbounds nuw i8, ptr %6, i64 112
  call void @_ZN2cv3MatD1Ev(ptr noundef nonnull align 8 dereferenceable(96) %26) #25
  %27 = getelementptr inbounds nuw i8, ptr %6, i64 16
  call void @_ZN2cv3MatD1Ev(ptr noundef nonnull align 8 dereferenceable(96) %27) #25
  call void @llvm.lifetime.end.p0(i64 352, ptr nonnull %6) #25
  call void @llvm.lifetime.end.p0(i64 352, ptr nonnull %5) #25
  call void @llvm.lifetime.start.p0(i64 24, ptr nonnull %8) #25
  %28 = getelementptr inbounds nuw i8, ptr %8, i64 16
  store i32 0, ptr %28, align 8, !tbaa !129
  %29 = getelementptr inbounds nuw i8, ptr %8, i64 20
  store i32 0, ptr %29, align 4, !tbaa !130
  store i32 16842752, ptr %8, align 8, !tbaa !30
  %30 = getelementptr inbounds nuw i8, ptr %8, i64 8
  store ptr %4, ptr %30, align 8, !tbaa !34
  call void @llvm.lifetime.start.p0(i64 24, ptr nonnull %9) #25
  %31 = getelementptr inbounds nuw i8, ptr %9, i64 8
  %32 = getelementptr inbounds nuw i8, ptr %9, i64 16
  store i64 0, ptr %32, align 8
  store i32 33619968, ptr %9, align 8, !tbaa !30
  store ptr %3, ptr %31, align 8, !tbaa !34
  %33 = invoke noundef nonnull align 8 dereferenceable(24) ptr @_ZN2cv7noArrayEv()
          to label %34 unwind label %54

34:                                               ; preds = %18
  invoke void @_ZN2cv9RodriguesERKNS_11_InputArrayERKNS_12_OutputArrayES5_(ptr noundef nonnull align 8 dereferenceable(24) %8, ptr noundef nonnull align 8 dereferenceable(24) %9, ptr noundef nonnull align 8 dereferenceable(24) %33)
          to label %35 unwind label %54

35:                                               ; preds = %34
  call void @llvm.lifetime.end.p0(i64 24, ptr nonnull %9) #25
  call void @llvm.lifetime.end.p0(i64 24, ptr nonnull %8) #25
  call void @llvm.lifetime.start.p0(i64 24, ptr nonnull %10) #25
  %36 = getelementptr inbounds nuw i8, ptr %10, i64 16
  store i32 0, ptr %36, align 8, !tbaa !129
  %37 = getelementptr inbounds nuw i8, ptr %10, i64 20
  store i32 0, ptr %37, align 4, !tbaa !130
  store i32 16842752, ptr %10, align 8, !tbaa !30
  %38 = getelementptr inbounds nuw i8, ptr %10, i64 8
  store ptr %3, ptr %38, align 8, !tbaa !34
  %39 = invoke noundef nonnull align 8 dereferenceable(24) ptr @_ZN2cv7noArrayEv()
          to label %40 unwind label %56

40:                                               ; preds = %35
  %41 = invoke noundef double @_ZN2cv4normERKNS_11_InputArrayEiS2_(ptr noundef nonnull align 8 dereferenceable(24) %10, i32 noundef 4, ptr noundef nonnull align 8 dereferenceable(24) %39)
          to label %42 unwind label %56

42:                                               ; preds = %40
  call void @llvm.lifetime.end.p0(i64 24, ptr nonnull %10) #25
  call void @_ZN2cv3MatD1Ev(ptr noundef nonnull align 8 dereferenceable(96) %4) #25
  call void @llvm.lifetime.end.p0(i64 96, ptr nonnull %4) #25
  call void @_ZN2cv3MatD1Ev(ptr noundef nonnull align 8 dereferenceable(96) %3) #25
  call void @llvm.lifetime.end.p0(i64 96, ptr nonnull %3) #25
  ret double %41

43:                                               ; preds = %2
  %44 = landingpad { ptr, i32 }
          cleanup
  br label %53

45:                                               ; preds = %11
  %46 = landingpad { ptr, i32 }
          cleanup
  br label %52

47:                                               ; preds = %12
  %48 = landingpad { ptr, i32 }
          cleanup
  br label %51

49:                                               ; preds = %13
  %50 = landingpad { ptr, i32 }
          cleanup
  call void @_ZN2cv7MatExprD2Ev(ptr noundef nonnull align 8 dereferenceable(352) %5) #25
  br label %51

51:                                               ; preds = %49, %47
  %.pn = phi { ptr, i32 } [ %50, %49 ], [ %48, %47 ]
  call void @_ZN2cv7MatExprD2Ev(ptr noundef nonnull align 8 dereferenceable(352) %7) #25
  br label %52

52:                                               ; preds = %51, %45
  %.pn.pn = phi { ptr, i32 } [ %.pn, %51 ], [ %46, %45 ]
  call void @llvm.lifetime.end.p0(i64 352, ptr nonnull %7) #25
  call void @_ZN2cv7MatExprD2Ev(ptr noundef nonnull align 8 dereferenceable(352) %6) #25
  br label %53

53:                                               ; preds = %52, %43
  %.pn.pn.pn = phi { ptr, i32 } [ %.pn.pn, %52 ], [ %44, %43 ]
  call void @llvm.lifetime.end.p0(i64 352, ptr nonnull %6) #25
  call void @llvm.lifetime.end.p0(i64 352, ptr nonnull %5) #25
  br label %58

54:                                               ; preds = %34, %18
  %55 = landingpad { ptr, i32 }
          cleanup
  call void @llvm.lifetime.end.p0(i64 24, ptr nonnull %9) #25
  call void @llvm.lifetime.end.p0(i64 24, ptr nonnull %8) #25
  br label %58

56:                                               ; preds = %40, %35
  %57 = landingpad { ptr, i32 }
          cleanup
  call void @llvm.lifetime.end.p0(i64 24, ptr nonnull %10) #25
  br label %58

58:                                               ; preds = %56, %54, %53
  %.pn16.pn = phi { ptr, i32 } [ %57, %56 ], [ %55, %54 ], [ %.pn.pn.pn, %53 ]
  call void @_ZN2cv3MatD1Ev(ptr noundef nonnull align 8 dereferenceable(96) %4) #25
  call void @llvm.lifetime.end.p0(i64 96, ptr nonnull %4) #25
  call void @_ZN2cv3MatD1Ev(ptr noundef nonnull align 8 dereferenceable(96) %3) #25
  call void @llvm.lifetime.end.p0(i64 96, ptr nonnull %3) #25
  resume { ptr, i32 } %.pn16.pn
}